; ModuleID = '10/1384.c'
source_filename = "10/1384.c"
target datalayout = "e-m:e-p270:32:32-p271:32:32-p272:64:64-i64:64-f80:128-n8:16:32:64-S128"
target triple = "x86_64-pc-linux-gnu"

@.str = private unnamed_addr constant [3 x i8] c"%d\00", align 1
@.str.1 = private unnamed_addr constant [4 x i8] c"%d\0A\00", align 1

; Function Attrs: noinline nounwind uwtable
define dso_local i32 @main() #0 {
  %1 = alloca i32, align 4
  %2 = alloca i32, align 4
  %3 = alloca i32, align 4
  %4 = alloca [100001 x i32], align 16
  %5 = alloca i32, align 4
  %6 = alloca i32, align 4
  %7 = alloca i32, align 4
  store i32 0, i32* %1, align 4
  store i32 0, i32* %3, align 4
  %8 = bitcast [100001 x i32]* %4 to i8*
  call void @llvm.memset.p0i8.i64(i8* align 16 %8, i8 0, i64 400004, i1 false)
  %9 = bitcast i8* %8 to <{ i32, [100000 x i32] }>*
  %10 = getelementptr inbounds <{ i32, [100000 x i32] }>, <{ i32, [100000 x i32] }>* %9, i32 0, i32 0
  store i32 100000000, i32* %10, align 16
  %11 = call i32 (i8*, ...) @__isoc99_scanf(i8* getelementptr inbounds ([3 x i8], [3 x i8]* @.str, i64 0, i64 0), i32* %2)
  store i32 1, i32* %5, align 4
  br label %12

12:                                               ; preds = %44, %0
  %13 = load i32, i32* %5, align 4
  %14 = load i32, i32* %2, align 4
  %15 = icmp sle i32 %13, %14
  br i1 %15, label %16, label %47

16:                                               ; preds = %12
  %17 = call i32 (i8*, ...) @__isoc99_scanf(i8* getelementptr inbounds ([3 x i8], [3 x i8]* @.str, i64 0, i64 0), i32* %6)
  %18 = load i32, i32* %3, align 4
  store i32 %18, i32* %7, align 4
  br label %19

19:                                               ; preds = %26, %16
  %20 = load i32, i32* %7, align 4
  %21 = sext i32 %20 to i64
  %22 = getelementptr inbounds [100001 x i32], [100001 x i32]* %4, i64 0, i64 %21
  %23 = load i32, i32* %22, align 4
  %24 = load i32, i32* %6, align 4
  %25 = icmp slt i32 %23, %24
  br i1 %25, label %26, label %29

26:                                               ; preds = %19
  %27 = load i32, i32* %7, align 4
  %28 = add nsw i32 %27, -1
  store i32 %28, i32* %7, align 4
  br label %19

29:                                               ; preds = %19
  %30 = load i32, i32* %6, align 4
  %31 = load i32, i32* %7, align 4
  %32 = add nsw i32 %31, 1
  store i32 %32, i32* %7, align 4
  %33 = sext i32 %32 to i64
  %34 = getelementptr inbounds [100001 x i32], [100001 x i32]* %4, i64 0, i64 %33
  store i32 %30, i32* %34, align 4
  %35 = load i32, i32* %7, align 4
  %36 = load i32, i32* %3, align 4
  %37 = icmp sgt i32 %35, %36
  br i1 %37, label %38, label %40

38:                                               ; preds = %29
  %39 = load i32, i32* %7, align 4
  br label %42

40:                                               ; preds = %29
  %41 = load i32, i32* %3, align 4
  br label %42

42:                                               ; preds = %40, %38
  %43 = phi i32 [ %39, %38 ], [ %41, %40 ]
  store i32 %43, i32* %3, align 4
  br label %44

44:                                               ; preds = %42
  %45 = load i32, i32* %5, align 4
  %46 = add nsw i32 %45, 1
  store i32 %46, i32* %5, align 4
  br label %12

47:                                               ; preds = %12
  %48 = load i32, i32* %3, align 4
  %49 = call i32 (i8*, ...) @printf(i8* getelementptr inbounds ([4 x i8], [4 x i8]* @.str.1, i64 0, i64 0), i32 %48)
  %50 = call i32 @getchar()
  %51 = call i32 @getchar()
  ret i32 0
}

; Function Attrs: argmemonly nounwind willreturn
declare void @llvm.memset.p0i8.i64(i8* nocapture writeonly, i8, i64, i1 immarg) #1

declare dso_local i32 @__isoc99_scanf(i8*, ...) #2

declare dso_local i32 @printf(i8*, ...) #2

declare dso_local i32 @getchar() #2


!llvm.module.flags = !{!0}
!llvm.ident = !{!1}

!0 = !{i32 1, !"wchar_size", i32 4}
!1 = !{!"clang version 10.0.0-4ubuntu1 "}
